target datalayout = "e-m:e-p270:32:32-p271:32:32-p272:64:64-i64:64-i128:128-f80:128-n8:16:32:64-S128"
target triple = "x86_64-pc-linux-gnu"

%struct._dcerpc_info = type { ptr, i32, i64, i8, i8, i8, i32, i32, i32, i32, i32, i32, i32, i32, ptr, ptr, ptr, ptr, %struct.anon }
%struct.anon = type { i8, ptr, ptr, ptr, i8 }

; Function Attrs: null_pointer_is_valid sspstrong uwtable
define internal i32 @netlogon_dissect_KRB5_TICKET_BLOB(ptr noundef %0, i32 noundef %1, i32 noundef %2, ptr noundef %3, ptr noundef %4, ptr noundef %5, ptr noundef %6) #0 {
  %8 = alloca i32, align 4
  %9 = alloca ptr, align 8
  %10 = alloca i32, align 4
  %11 = alloca i32, align 4
  %12 = alloca ptr, align 8
  %13 = alloca ptr, align 8
  %14 = alloca ptr, align 8
  %15 = alloca ptr, align 8
  %16 = alloca ptr, align 8
  %17 = alloca i32, align 4
  store ptr %0, ptr %9, align 8
  store i32 %1, ptr %10, align 4
  store i32 %2, ptr %11, align 4
  store ptr %3, ptr %12, align 8
  store ptr %4, ptr %13, align 8
  store ptr %5, ptr %14, align 8
  store ptr %6, ptr %15, align 8
  call void @llvm.lifetime.start.p0(i64 8, ptr %16) #15
  store ptr null, ptr %16, align 8
  %18 = load ptr, ptr %14, align 8
  %19 = getelementptr inbounds nuw %struct._dcerpc_info, ptr %18, i32 0, i32 4
  %20 = load i8, ptr %19, align 1, !range !6, !noundef !7
  %21 = trunc i8 %20 to i1
  br i1 %21, label %22, label %24

22:                                               ; preds = %7
  %23 = load i32, ptr %10, align 4
  store i32 %23, ptr %8, align 4
  store i32 1, ptr %17, align 4
  br label %37

24:                                               ; preds = %7
  %25 = load ptr, ptr %9, align 8
  %26 = load i32, ptr %10, align 4
  %27 = load i32, ptr %11, align 4
  %28 = call ptr @tvb_new_subset_length(ptr noundef %25, i32 noundef %26, i32 noundef %27)
  store ptr %28, ptr %16, align 8
  %29 = load i32, ptr %11, align 4
  %30 = load i32, ptr %10, align 4
  %31 = add i32 %30, %29
  store i32 %31, ptr %10, align 4
  %32 = load ptr, ptr %16, align 8
  %33 = load ptr, ptr %12, align 8
  %34 = load ptr, ptr %13, align 8
  %35 = call i32 @dissect_kerberos_main(ptr noundef %32, ptr noundef %33, ptr noundef %34, i1 noundef zeroext false, ptr noundef null)
  %36 = load i32, ptr %10, align 4
  store i32 %36, ptr %8, align 4
  store i32 1, ptr %17, align 4
  br label %37

37:                                               ; preds = %24, %22
  call void @llvm.lifetime.end.p0(i64 8, ptr %16) #15
  %38 = load i32, ptr %8, align 4
  ret i32 %38
}