; Function Attrs: null_pointer_is_valid sspstrong uwtable
define internal noundef i32 @netlogon_dissect_KRB5_TICKET_BLOB(ptr noundef %0, i32 noundef %1, i32 noundef %2, ptr noundef %3, ptr noundef %4, ptr noundef readonly captures(none) %5, ptr readnone captures(none) %6) #0 {
  %8 = getelementptr inbounds nuw i8, ptr %5, i64 25
  %9 = load i8, ptr %8, align 1, !range !6, !noundef !7
  %10 = trunc nuw i8 %9 to i1
  br i1 %10, label %15, label %11

11:                                               ; preds = %7
  %12 = tail call ptr @tvb_new_subset_length(ptr noundef %0, i32 noundef %1, i32 noundef %2)
  %13 = add i32 %2, %1
  %14 = tail call i32 @dissect_kerberos_main(ptr noundef %12, ptr noundef %3, ptr noundef %4, i1 noundef zeroext false, ptr noundef null)
  br label %15

15:                                               ; preds = %7, %11
  %.0 = phi i32 [ %13, %11 ], [ %1, %7 ]
  ret i32 %.0
}